(dp1
S'output'
p2
S'<class \'applications.SearcherApp.modules.pymysql.err.OperationalError\'> (2003, "Can\'t connect to MySQL server on \'127.0.0.1\' ([Errno 10061] No se puede establecer una conexi\\xf3n ya que el equipo de destino deneg\\xf3 expresamente dicha conexi\\xf3n)")'
p3
sS'layer'
p4
S'C:\\Users\\Ruben\\Documents\\Universidad\\4B\\PAE\\web2py_win\\web2py\\applications\\SearcherApp\\controllers/default.py'
p5
sS'code'
p6
S'<code object <module> at 03C85A40, file "C:\\Users\\Ruben\\Documents\\Universidad\\4B\\PAE\\web2py_win\\web2py\\applications\\SearcherApp\\controllers/default.py", line 1>'
p7
sS'snapshot'
p8
(dp9
S'exception'
p10
(dp11
S'__module__'
p12
S"'applications.SearcherApp.modules.pymysql.err'"
p13
sS'__getslice__'
p14
S"<method-wrapper '__getslice__' of OperationalError object>"
p15
sS'__str__'
p16
S"<method-wrapper '__str__' of OperationalError object>"
p17
sS'__reduce__'
p18
S'<built-in method __reduce__ of OperationalError object>'
p19
sS'__dict__'
p20
S'{\'original_exception\': error(10061, \'No se puede establecer una conexi\\...estino deneg\\xf3 expresamente dicha conexi\\xf3n\'), \'traceback\': \'Traceback (most recent call last):\\n  File "appli...po de destino deneg\\xf3 expresamente dicha conexi\\xf3n\\n\'}'
p21
sS'__sizeof__'
p22
S'<built-in method __sizeof__ of OperationalError object>'
p23
sS'__weakref__'
p24
S'None'
p25
sS'message'
p26
S"''"
p27
sS'__init__'
p28
S"<method-wrapper '__init__' of OperationalError object>"
p29
sS'__setattr__'
p30
S"<method-wrapper '__setattr__' of OperationalError object>"
p31
sS'__reduce_ex__'
p32
S'<built-in method __reduce_ex__ of OperationalError object>'
p33
sS'__new__'
p34
S'<built-in method __new__ of type object>'
p35
sS'__format__'
p36
S'<built-in method __format__ of OperationalError object>'
p37
sS'__class__'
p38
S"<class 'applications.SearcherApp.modules.pymysql.err.OperationalError'>"
p39
sS'original_exception'
p40
S"error(10061, 'No se puede establecer una conexi\\...estino deneg\\xf3 expresamente dicha conexi\\xf3n')"
p41
sS'__doc__'
p42
S"'Exception raised for errors that are related to ...cation\\n    error occurred during processing, etc.'"
p43
sS'__getitem__'
p44
S"<method-wrapper '__getitem__' of OperationalError object>"
p45
sS'__setstate__'
p46
S'<built-in method __setstate__ of OperationalError object>'
p47
sS'__getattribute__'
p48
S"<method-wrapper '__getattribute__' of OperationalError object>"
p49
sS'args'
p50
S'(2003, "Can\'t connect to MySQL server on \'127.0.0.1\' ([E...po de destino deneg\\xf3 expresamente dicha conexi\\xf3n)")'
p51
sS'__subclasshook__'
p52
S'<built-in method __subclasshook__ of type object>'
p53
sS'__unicode__'
p54
S'<built-in method __unicode__ of OperationalError object>'
p55
sS'traceback'
p56
S'\'Traceback (most recent call last):\\n  File "appli...po de destino deneg\\xf3 expresamente dicha conexi\\xf3n\\n\''
p57
sS'__delattr__'
p58
S"<method-wrapper '__delattr__' of OperationalError object>"
p59
sS'__repr__'
p60
S"<method-wrapper '__repr__' of OperationalError object>"
p61
sS'__hash__'
p62
S"<method-wrapper '__hash__' of OperationalError object>"
p63
ssS'evalue'
p64
S'(2003, "Can\'t connect to MySQL server on \'127.0.0.1\' ([Errno 10061] No se puede establecer una conexi\\xf3n ya que el equipo de destino deneg\\xf3 expresamente dicha conexi\\xf3n)")'
p65
sS'request'
p66
cgluon.html
XML_unpickle
p67
(S's\xd9i\x00\x00<div><table><tr><td style="font-weight:bold;vertical-align:top;">ajax</td><td style="vertical-align:top;">:</td><td><div>False</div></td></tr><tr><td style="font-weight:bold;vertical-align:top;">application</td><td style="vertical-align:top;">:</td><td><div>SearcherApp</div></td></tr><tr><td style="font-weight:bold;vertical-align:top;">args</td><td style="vertical-align:top;">:</td><td><div><table></table></div></td></tr><tr><td style="font-weight:bold;vertical-align:top;">cid</td><td style="vertical-align:top;">:</td><td><div>None</div></td></tr><tr><td style="font-weight:bold;vertical-align:top;">client</td><td style="vertical-align:top;">:</td><td><div>127.0.0.1</div></td></tr><tr><td style="font-weight:bold;vertical-align:top;">controller</td><td style="vertical-align:top;">:</td><td><div>default</div></td></tr><tr><td style="font-weight:bold;vertical-align:top;">cookies</td><td style="vertical-align:top;">:</td><td><div><table><tr><td style="font-weight:bold;vertical-align:top;">session_id_admin</td><td style="vertical-align:top;">:</td><td><div>127.0.0.1-22bec777-ae2c-48a9-9d44-40e5fcb9ed64<table><tr><td style="font-weight:bold;vertical-align:top;">comment</td><td style="vertical-align:top;">:</td><td><div></div></td></tr><tr><td style="font-weight:bold;vertical-align:top;">domain</td><td style="vertical-align:top;">:</td><td><div></div></td></tr><tr><td style="font-weight:bold;vertical-align:top;">expires</td><td style="vertical-align:top;">:</td><td><div></div></td></tr><tr><td style="font-weight:bold;vertical-align:top;">httponly</td><td style="vertical-align:top;">:</td><td><div></div></td></tr><tr><td style="font-weight:bold;vertical-align:top;">max-age</td><td style="vertical-align:top;">:</td><td><div></div></td></tr><tr><td style="font-weight:bold;vertical-align:top;">path</td><td style="vertical-align:top;">:</td><td><div></div></td></tr><tr><td style="font-weight:bold;vertical-align:top;">samesite</td><td style="vertical-align:top;">:</td><td><div></div></td></tr><tr><td style="font-weight:bold;vertical-align:top;">secure</td><td style="vertical-align:top;">:</td><td><div></div></td></tr><tr><td style="font-weight:bold;vertical-align:top;">version</td><td style="vertical-align:top;">:</td><td><div></div></td></tr></table></div></td></tr><tr><td style="font-weight:bold;vertical-align:top;">session_id_searcherapp</td><td style="vertical-align:top;">:</td><td><div>127.0.0.1-b94ab0bb-7804-4539-a94d-e9ea39ac347d<table><tr><td style="font-weight:bold;vertical-align:top;">comment</td><td style="vertical-align:top;">:</td><td><div></div></td></tr><tr><td style="font-weight:bold;vertical-align:top;">domain</td><td style="vertical-align:top;">:</td><td><div></div></td></tr><tr><td style="font-weight:bold;vertical-align:top;">expires</td><td style="vertical-align:top;">:</td><td><div></div></td></tr><tr><td style="font-weight:bold;vertical-align:top;">httponly</td><td style="vertical-align:top;">:</td><td><div></div></td></tr><tr><td style="font-weight:bold;vertical-align:top;">max-age</td><td style="vertical-align:top;">:</td><td><div></div></td></tr><tr><td style="font-weight:bold;vertical-align:top;">path</td><td style="vertical-align:top;">:</td><td><div></div></td></tr><tr><td style="font-weight:bold;vertical-align:top;">samesite</td><td style="vertical-align:top;">:</td><td><div></div></td></tr><tr><td style="font-weight:bold;vertical-align:top;">secure</td><td style="vertical-align:top;">:</td><td><div></div></td></tr><tr><td style="font-weight:bold;vertical-align:top;">version</td><td style="vertical-align:top;">:</td><td><div></div></td></tr></table></div></td></tr><tr><td style="font-weight:bold;vertical-align:top;">session_id_welcome</td><td style="vertical-align:top;">:</td><td><div>127.0.0.1-b8000313-1f37-4a3c-9bb7-9e1f7a98c474<table><tr><td style="font-weight:bold;vertical-align:top;">comment</td><td style="vertical-align:top;">:</td><td><div></div></td></tr><tr><td style="font-weight:bold;vertical-align:top;">domain</td><td style="vertical-align:top;">:</td><td><div></div></td></tr><tr><td style="font-weight:bold;vertical-align:top;">expires</td><td style="vertical-align:top;">:</td><td><div></div></td></tr><tr><td style="font-weight:bold;vertical-align:top;">httponly</td><td style="vertical-align:top;">:</td><td><div></div></td></tr><tr><td style="font-weight:bold;vertical-align:top;">max-age</td><td style="vertical-align:top;">:</td><td><div></div></td></tr><tr><td style="font-weight:bold;vertical-align:top;">path</td><td style="vertical-align:top;">:</td><td><div></div></td></tr><tr><td style="font-weight:bold;vertical-align:top;">samesite</td><td style="vertical-align:top;">:</td><td><div></div></td></tr><tr><td style="font-weight:bold;vertical-align:top;">secure</td><td style="vertical-align:top;">:</td><td><div></div></td></tr><tr><td style="font-weight:bold;vertical-align:top;">version</td><td style="vertical-align:top;">:</td><td><div></div></td></tr></table></div></td></tr></table></div></td></tr><tr><td style="font-weight:bold;vertical-align:top;">env</td><td style="vertical-align:top;">:</td><td><div><table><tr><td style="font-weight:bold;vertical-align:top;">CONTENT_LENGTH</td><td style="vertical-align:top;">:</td><td><div>3707</div></td></tr><tr><td style="font-weight:bold;vertical-align:top;">CONTENT_TYPE</td><td style="vertical-align:top;">:</td><td><div>multipart/form-data; boundary=----WebKitFormBoundaryevLS5coLTh0CtA1C</div></td></tr><tr><td style="font-weight:bold;vertical-align:top;">HTTP_ACCEPT</td><td style="vertical-align:top;">:</td><td><div>text/html,application/xhtml+xml,application/xml;q=0.9,image/webp,image/apng,*/*;q=0.8,application/signed-exchange;v=b3</div></td></tr><tr><td style="font-weight:bold;vertical-align:top;">HTTP_ACCEPT_ENCODING</td><td style="vertical-align:top;">:</td><td><div>gzip, deflate, br</div></td></tr><tr><td style="font-weight:bold;vertical-align:top;">HTTP_ACCEPT_LANGUAGE</td><td style="vertical-align:top;">:</td><td><div>ca-ES,ca;q=0.9,es;q=0.8,en;q=0.7</div></td></tr><tr><td style="font-weight:bold;vertical-align:top;">HTTP_CACHE_CONTROL</td><td style="vertical-align:top;">:</td><td><div>max-age=0</div></td></tr><tr><td style="font-weight:bold;vertical-align:top;">HTTP_CONNECTION</td><td style="vertical-align:top;">:</td><td><div>keep-alive</div></td></tr><tr><td style="font-weight:bold;vertical-align:top;">HTTP_CONTENT_LENGTH</td><td style="vertical-align:top;">:</td><td><div>3707</div></td></tr><tr><td style="font-weight:bold;vertical-align:top;">HTTP_CONTENT_TYPE</td><td style="vertical-align:top;">:</td><td><div>multipart/form-data; boundary=----WebKitFormBoundaryevLS5coLTh0CtA1C</div></td></tr><tr><td style="font-weight:bold;vertical-align:top;">HTTP_COOKIE</td><td style="vertical-align:top;">:</td><td><div>session_id_admin=127.0.0.1-22bec777-ae2c-48a9-9d44-40e5fcb9ed64; session_id_searcherapp=127.0.0.1-b94ab0bb-7804-4539-a94d-e9ea39ac347d; session_id_welcome=127.0.0.1-b8000313-1f37-4a3c-9bb7-9e1f7a98c474</div></td></tr><tr><td style="font-weight:bold;vertical-align:top;">HTTP_HOST</td><td style="vertical-align:top;">:</td><td><div>127.0.0.1:8000</div></td></tr><tr><td style="font-weight:bold;vertical-align:top;">HTTP_ORIGIN</td><td style="vertical-align:top;">:</td><td><div>http://127.0.0.1:8000</div></td></tr><tr><td style="font-weight:bold;vertical-align:top;">HTTP_REFERER</td><td style="vertical-align:top;">:</td><td><div>http://127.0.0.1:8000/SearcherApp/default/form</div></td></tr><tr><td style="font-weight:bold;vertical-align:top;">HTTP_UPGRADE_INSECURE_REQUESTS</td><td style="vertical-align:top;">:</td><td><div>1</div></td></tr><tr><td style="font-weight:bold;vertical-align:top;">HTTP_USER_AGENT</td><td style="vertical-align:top;">:</td><td><div>Mozilla/5.0 (Windows NT 10.0; Win64; x64) AppleWebKit/537.36 (KHTML, like Gecko) Chrome/73.0.3683.86 Safari/537.36</div></td></tr><tr><td style="font-weight:bold;vertical-align:top;">PATH_INFO</td><td style="vertical-align:top;">:</td><td><div>/SearcherApp/default/form</div></td></tr><tr><td style="font-weight:bold;vertical-align:top;">QUERY_STRING</td><td style="vertical-align:top;">:</td><td><div></div></td></tr><tr><td style="font-weight:bold;vertical-align:top;">REMOTE_ADDR</td><td style="vertical-align:top;">:</td><td><div>127.0.0.1</div></td></tr><tr><td style="font-weight:bold;vertical-align:top;">REMOTE_PORT</td><td style="vertical-align:top;">:</td><td><div>56645</div></td></tr><tr><td style="font-weight:bold;vertical-align:top;">REQUEST_METHOD</td><td style="vertical-align:top;">:</td><td><div>POST</div></td></tr><tr><td style="font-weight:bold;vertical-align:top;">SCRIPT_NAME</td><td style="vertical-align:top;">:</td><td><div></div></td></tr><tr><td style="font-weight:bold;vertical-align:top;">SERVER_NAME</td><td style="vertical-align:top;">:</td><td><div>DESKTOP-B2VESB9</div></td></tr><tr><td style="font-weight:bold;vertical-align:top;">SERVER_PORT</td><td style="vertical-align:top;">:</td><td><div>8000</div></td></tr><tr><td style="font-weight:bold;vertical-align:top;">SERVER_PROTOCOL</td><td style="vertical-align:top;">:</td><td><div>HTTP/1.1</div></td></tr><tr><td style="font-weight:bold;vertical-align:top;">SERVER_SOFTWARE</td><td style="vertical-align:top;">:</td><td><div>Rocket 1.2.6</div></td></tr><tr><td style="font-weight:bold;vertical-align:top;">app_folders</td><td style="vertical-align:top;">:</td><td><div>set([&#x27;C:\\\\Users\\\\Ruben\\\\Documents\\\\Universidad\\\\4B\\\\PAE\\\\web2py_win\\\\web2py\\\\applications\\\\welcome&#x27;, &#x27;C:\\\\Users\\\\Ruben\\\\Documents\\\\Universidad\\\\4B\\\\PAE\\\\web2py_win\\\\web2py\\\\applications\\\\admin&#x27;, &#x27;C:\\\\Users\\\\Ruben\\\\Documents\\\\Universidad\\\\4B\\\\PAE\\\\web2py_win\\\\web2py\\\\applications\\\\SearcherApp&#x27;])</div></td></tr><tr><td style="font-weight:bold;vertical-align:top;">applications_parent</td><td style="vertical-align:top;">:</td><td><div>C:\\Users\\Ruben\\Documents\\Universidad\\4B\\PAE\\web2py_win\\web2py</div></td></tr><tr><td style="font-weight:bold;vertical-align:top;">cmd_args</td><td style="vertical-align:top;">:</td><td><div><table></table></div></td></tr><tr><td style="font-weight:bold;vertical-align:top;">cmd_options</td><td style="vertical-align:top;">:</td><td><div>&lt;Values at 0x33c5580: {&#x27;verbose&#x27;: False, &#x27;ip&#x27;: &#x27;127.0.0.1&#x27;, &#x27;debuglevel&#x27;: 30, &#x27;with_scheduler&#x27;: False, &#x27;shutdown_timeout&#x27;: 5, &#x27;taskbar&#x27;: False, &#x27;with_coverage&#x27;: False, &#x27;pid_filename&#x27;: &#x27;httpserver.pid&#x27;, &#x27;maxthreads&#x27;: None, &#x27;softcron&#x27;: False, &#x27;server_name&#x27;: &#x27;DESKTOP-B2VESB9&#x27;, &#x27;bpython&#x27;: False, &#x27;nogui&#x27;: False, &#x27;port&#x27;: 8000, &#x27;print_errors&#x27;: False, &#x27;extcron&#x27;: False, &#x27;runcron&#x27;: False, &#x27;run_system_tests&#x27;: False, &#x27;test&#x27;: None, &#x27;folder&#x27;: &#x27;C:\\\\Users\\\\Ruben\\\\Documents\\\\Universidad\\\\4B\\\\PAE\\\\web2py_win\\\\web2py&#x27;, &#x27;config&#x27;: &#x27;&#x27;, &#x27;minthreads&#x27;: None, &#x27;shell&#x27;: None, &#x27;run&#x27;: &#x27;&#x27;, &#x27;log_filename&#x27;: &#x27;httpserver.log&#x27;, &#x27;profiler_dir&#x27;: None, &#x27;args&#x27;: [], &#x27;socket_timeout&#x27;: 5, &#x27;ssl_ca_certificate&#x27;: None, &#x27;scheduler&#x27;: None, &#x27;interfaces&#x27;: None, &#x27;ssl_private_key&#x27;: &#x27;&#x27;, &#x27;gae&#x27;: None, &#x27;password&#x27;: &#x27;******&#x27;, &#x27;request_queue_size&#x27;: 5, &#x27;ssl_certificate&#x27;: &#x27;&#x27;, &#x27;cronjob&#x27;: False, &#x27;numthreads&#x27;: None, &#x27;quiet&#x27;: False, &#x27;import_models&#x27;: False, &#x27;timeout&#x27;: 10, &#x27;plain&#x27;: False, &#x27;nobanner&#x27;: False}&gt;</div></td></tr><tr><td style="font-weight:bold;vertical-align:top;">content_length</td><td style="vertical-align:top;">:</td><td><div>3707</div></td></tr><tr><td style="font-weight:bold;vertical-align:top;">content_type</td><td style="vertical-align:top;">:</td><td><div>multipart/form-data; boundary=----WebKitFormBoundaryevLS5coLTh0CtA1C</div></td></tr><tr><td style="font-weight:bold;vertical-align:top;">db_sessions</td><td style="vertical-align:top;">:</td><td><div>set([])</div></td></tr><tr><td style="font-weight:bold;vertical-align:top;">debugging</td><td style="vertical-align:top;">:</td><td><div>False</div></td></tr><tr><td style="font-weight:bold;vertical-align:top;">gluon_parent</td><td style="vertical-align:top;">:</td><td><div>C:\\Users\\Ruben\\Documents\\Universidad\\4B\\PAE\\web2py_win\\web2py</div></td></tr><tr><td style="font-weight:bold;vertical-align:top;">http_accept</td><td style="vertical-align:top;">:</td><td><div>text/html,application/xhtml+xml,application/xml;q=0.9,image/webp,image/apng,*/*;q=0.8,application/signed-exchange;v=b3</div></td></tr><tr><td style="font-weight:bold;vertical-align:top;">http_accept_encoding</td><td style="vertical-align:top;">:</td><td><div>gzip, deflate, br</div></td></tr><tr><td style="font-weight:bold;vertical-align:top;">http_accept_language</td><td style="vertical-align:top;">:</td><td><div>ca-ES,ca;q=0.9,es;q=0.8,en;q=0.7</div></td></tr><tr><td style="font-weight:bold;vertical-align:top;">http_cache_control</td><td style="vertical-align:top;">:</td><td><div>max-age=0</div></td></tr><tr><td style="font-weight:bold;vertical-align:top;">http_connection</td><td style="vertical-align:top;">:</td><td><div>keep-alive</div></td></tr><tr><td style="font-weight:bold;vertical-align:top;">http_content_length</td><td style="vertical-align:top;">:</td><td><div>3707</div></td></tr><tr><td style="font-weight:bold;vertical-align:top;">http_content_type</td><td style="vertical-align:top;">:</td><td><div>multipart/form-data; boundary=----WebKitFormBoundaryevLS5coLTh0CtA1C</div></td></tr><tr><td style="font-weight:bold;vertical-align:top;">http_cookie</td><td style="vertical-align:top;">:</td><td><div>session_id_admin=127.0.0.1-22bec777-ae2c-48a9-9d44-40e5fcb9ed64; session_id_searcherapp=127.0.0.1-b94ab0bb-7804-4539-a94d-e9ea39ac347d; session_id_welcome=127.0.0.1-b8000313-1f37-4a3c-9bb7-9e1f7a98c474</div></td></tr><tr><td style="font-weight:bold;vertical-align:top;">http_host</td><td style="vertical-align:top;">:</td><td><div>127.0.0.1:8000</div></td></tr><tr><td style="font-weight:bold;vertical-align:top;">http_origin</td><td style="vertical-align:top;">:</td><td><div>http://127.0.0.1:8000</div></td></tr><tr><td style="font-weight:bold;vertical-align:top;">http_referer</td><td style="vertical-align:top;">:</td><td><div>http://127.0.0.1:8000/SearcherApp/default/form</div></td></tr><tr><td style="font-weight:bold;vertical-align:top;">http_upgrade_insecure_requests</td><td style="vertical-align:top;">:</td><td><div>1</div></td></tr><tr><td style="font-weight:bold;vertical-align:top;">http_user_agent</td><td style="vertical-align:top;">:</td><td><div>Mozilla/5.0 (Windows NT 10.0; Win64; x64) AppleWebKit/537.36 (KHTML, like Gecko) Chrome/73.0.3683.86 Safari/537.36</div></td></tr><tr><td style="font-weight:bold;vertical-align:top;">is_jython</td><td style="vertical-align:top;">:</td><td><div>False</div></td></tr><tr><td style="font-weight:bold;vertical-align:top;">is_py2</td><td style="vertical-align:top;">:</td><td><div>True</div></td></tr><tr><td style="font-weight:bold;vertical-align:top;">is_pypy</td><td style="vertical-align:top;">:</td><td><div>False</div></td></tr><tr><td style="font-weight:bold;vertical-align:top;">is_source</td><td style="vertical-align:top;">:</td><td><div>False</div></td></tr><tr><td style="font-weight:bold;vertical-align:top;">local_hosts</td><td style="vertical-align:top;">:</td><td><div><table><tr><td><div>fe80::99a0:c65e:a082:e0cf%3</div></td></tr><tr><td><div>DESKTOP-B2VESB9.upc.edu</div></td></tr><tr><td><div>::ffff:127.0.0.1</div></td></tr><tr><td><div>::1</div></td></tr><tr><td><div>DESKTOP-B2VESB9</div></td></tr><tr><td><div>10.192.220.188</div></td></tr><tr><td><div>127.0.0.1</div></td></tr></table></div></td></tr><tr><td style="font-weight:bold;vertical-align:top;">path_info</td><td style="vertical-align:top;">:</td><td><div>/SearcherApp/default/form</div></td></tr><tr><td style="font-weight:bold;vertical-align:top;">query_string</td><td style="vertical-align:top;">:</td><td><div></div></td></tr><tr><td style="font-weight:bold;vertical-align:top;">remote_addr</td><td style="vertical-align:top;">:</td><td><div>127.0.0.1</div></td></tr><tr><td style="font-weight:bold;vertical-align:top;">remote_port</td><td style="vertical-align:top;">:</td><td><div>56645</div></td></tr><tr><td style="font-weight:bold;vertical-align:top;">request_method</td><td style="vertical-align:top;">:</td><td><div>POST</div></td></tr><tr><td style="font-weight:bold;vertical-align:top;">request_uri</td><td style="vertical-align:top;">:</td><td><div>/SearcherApp/default/form</div></td></tr><tr><td style="font-weight:bold;vertical-align:top;">script_name</td><td style="vertical-align:top;">:</td><td><div></div></td></tr><tr><td style="font-weight:bold;vertical-align:top;">server_name</td><td style="vertical-align:top;">:</td><td><div>DESKTOP-B2VESB9</div></td></tr><tr><td style="font-weight:bold;vertical-align:top;">server_port</td><td style="vertical-align:top;">:</td><td><div>8000</div></td></tr><tr><td style="font-weight:bold;vertical-align:top;">server_protocol</td><td style="vertical-align:top;">:</td><td><div>HTTP/1.1</div></td></tr><tr><td style="font-weight:bold;vertical-align:top;">server_software</td><td style="vertical-align:top;">:</td><td><div>Rocket 1.2.6</div></td></tr><tr><td style="font-weight:bold;vertical-align:top;">web2py_path</td><td style="vertical-align:top;">:</td><td><div>C:\\Users\\Ruben\\Documents\\Universidad\\4B\\PAE\\web2py_win\\web2py</div></td></tr><tr><td style="font-weight:bold;vertical-align:top;">web2py_version</td><td style="vertical-align:top;">:</td><td><div>2.18.5-stable+timestamp.2019.04.08.04.22.03</div></td></tr><tr><td style="font-weight:bold;vertical-align:top;">wsgi.errors</td><td style="vertical-align:top;">:</td><td><div>&lt;open file &#x27;&lt;stderr&gt;&#x27;, mode &#x27;w&#x27; at 0x022CD0D0&gt;</div></td></tr><tr><td style="font-weight:bold;vertical-align:top;">wsgi.file_wrapper</td><td style="vertical-align:top;">:</td><td><div>&lt;class wsgiref.util.FileWrapper at 0x03AEBAE8&gt;</div></td></tr><tr><td style="font-weight:bold;vertical-align:top;">wsgi.input</td><td style="vertical-align:top;">:</td><td><div>&lt;socket._fileobject object at 0x042DD170&gt;</div></td></tr><tr><td style="font-weight:bold;vertical-align:top;">wsgi.multiprocess</td><td style="vertical-align:top;">:</td><td><div>False</div></td></tr><tr><td style="font-weight:bold;vertical-align:top;">wsgi.multithread</td><td style="vertical-align:top;">:</td><td><div>True</div></td></tr><tr><td style="font-weight:bold;vertical-align:top;">wsgi.run_once</td><td style="vertical-align:top;">:</td><td><div>False</div></td></tr><tr><td style="font-weight:bold;vertical-align:top;">wsgi.url_scheme</td><td style="vertical-align:top;">:</td><td><div>http</div></td></tr><tr><td style="font-weight:bold;vertical-align:top;">wsgi.version</td><td style="vertical-align:top;">:</td><td><div><table><tr><td><div>1</div></td></tr><tr><td><div>0</div></td></tr></table></div></td></tr><tr><td style="font-weight:bold;vertical-align:top;">wsgi_errors</td><td style="vertical-align:top;">:</td><td><div>&lt;open file &#x27;&lt;stderr&gt;&#x27;, mode &#x27;w&#x27; at 0x022CD0D0&gt;</div></td></tr><tr><td style="font-weight:bold;vertical-align:top;">wsgi_file_wrapper</td><td style="vertical-align:top;">:</td><td><div>&lt;class wsgiref.util.FileWrapper at 0x03AEBAE8&gt;</div></td></tr><tr><td style="font-weight:bold;vertical-align:top;">wsgi_input</td><td style="vertical-align:top;">:</td><td><div>&lt;socket._fileobject object at 0x042DD170&gt;</div></td></tr><tr><td style="font-weight:bold;vertical-align:top;">wsgi_multiprocess</td><td style="vertical-align:top;">:</td><td><div>False</div></td></tr><tr><td style="font-weight:bold;vertical-align:top;">wsgi_multithread</td><td style="vertical-align:top;">:</td><td><div>True</div></td></tr><tr><td style="font-weight:bold;vertical-align:top;">wsgi_run_once</td><td style="vertical-align:top;">:</td><td><div>False</div></td></tr><tr><td style="font-weight:bold;vertical-align:top;">wsgi_url_scheme</td><td style="vertical-align:top;">:</td><td><div>http</div></td></tr><tr><td style="font-weight:bold;vertical-align:top;">wsgi_version</td><td style="vertical-align:top;">:</td><td><div><table><tr><td><div>1</div></td></tr><tr><td><div>0</div></td></tr></table></div></td></tr></table></div></td></tr><tr><td style="font-weight:bold;vertical-align:top;">extension</td><td style="vertical-align:top;">:</td><td><div>html</div></td></tr><tr><td style="font-weight:bold;vertical-align:top;">folder</td><td style="vertical-align:top;">:</td><td><div>C:\\Users\\Ruben\\Documents\\Universidad\\4B\\PAE\\web2py_win\\web2py\\applications\\SearcherApp</div></td></tr><tr><td style="font-weight:bold;vertical-align:top;">function</td><td style="vertical-align:top;">:</td><td><div>form</div></td></tr><tr><td style="font-weight:bold;vertical-align:top;">global_settings</td><td style="vertical-align:top;">:</td><td><div><table><tr><td style="font-weight:bold;vertical-align:top;">app_folders</td><td style="vertical-align:top;">:</td><td><div>set([&#x27;C:\\\\Users\\\\Ruben\\\\Documents\\\\Universidad\\\\4B\\\\PAE\\\\web2py_win\\\\web2py\\\\applications\\\\welcome&#x27;, &#x27;C:\\\\Users\\\\Ruben\\\\Documents\\\\Universidad\\\\4B\\\\PAE\\\\web2py_win\\\\web2py\\\\applications\\\\admin&#x27;, &#x27;C:\\\\Users\\\\Ruben\\\\Documents\\\\Universidad\\\\4B\\\\PAE\\\\web2py_win\\\\web2py\\\\applications\\\\SearcherApp&#x27;])</div></td></tr><tr><td style="font-weight:bold;vertical-align:top;">applications_parent</td><td style="vertical-align:top;">:</td><td><div>C:\\Users\\Ruben\\Documents\\Universidad\\4B\\PAE\\web2py_win\\web2py</div></td></tr><tr><td style="font-weight:bold;vertical-align:top;">cmd_args</td><td style="vertical-align:top;">:</td><td><div><table></table></div></td></tr><tr><td style="font-weight:bold;vertical-align:top;">cmd_options</td><td style="vertical-align:top;">:</td><td><div>&lt;Values at 0x33c5580: {&#x27;verbose&#x27;: False, &#x27;ip&#x27;: &#x27;127.0.0.1&#x27;, &#x27;debuglevel&#x27;: 30, &#x27;with_scheduler&#x27;: False, &#x27;shutdown_timeout&#x27;: 5, &#x27;taskbar&#x27;: False, &#x27;with_coverage&#x27;: False, &#x27;pid_filename&#x27;: &#x27;httpserver.pid&#x27;, &#x27;maxthreads&#x27;: None, &#x27;softcron&#x27;: False, &#x27;server_name&#x27;: &#x27;DESKTOP-B2VESB9&#x27;, &#x27;bpython&#x27;: False, &#x27;nogui&#x27;: False, &#x27;port&#x27;: 8000, &#x27;print_errors&#x27;: False, &#x27;extcron&#x27;: False, &#x27;runcron&#x27;: False, &#x27;run_system_tests&#x27;: False, &#x27;test&#x27;: None, &#x27;folder&#x27;: &#x27;C:\\\\Users\\\\Ruben\\\\Documents\\\\Universidad\\\\4B\\\\PAE\\\\web2py_win\\\\web2py&#x27;, &#x27;config&#x27;: &#x27;&#x27;, &#x27;minthreads&#x27;: None, &#x27;shell&#x27;: None, &#x27;run&#x27;: &#x27;&#x27;, &#x27;log_filename&#x27;: &#x27;httpserver.log&#x27;, &#x27;profiler_dir&#x27;: None, &#x27;args&#x27;: [], &#x27;socket_timeout&#x27;: 5, &#x27;ssl_ca_certificate&#x27;: None, &#x27;scheduler&#x27;: None, &#x27;interfaces&#x27;: None, &#x27;ssl_private_key&#x27;: &#x27;&#x27;, &#x27;gae&#x27;: None, &#x27;password&#x27;: &#x27;******&#x27;, &#x27;request_queue_size&#x27;: 5, &#x27;ssl_certificate&#x27;: &#x27;&#x27;, &#x27;cronjob&#x27;: False, &#x27;numthreads&#x27;: None, &#x27;quiet&#x27;: False, &#x27;import_models&#x27;: False, &#x27;timeout&#x27;: 10, &#x27;plain&#x27;: False, &#x27;nobanner&#x27;: False}&gt;</div></td></tr><tr><td style="font-weight:bold;vertical-align:top;">db_sessions</td><td style="vertical-align:top;">:</td><td><div>set([])</div></td></tr><tr><td style="font-weight:bold;vertical-align:top;">debugging</td><td style="vertical-align:top;">:</td><td><div>False</div></td></tr><tr><td style="font-weight:bold;vertical-align:top;">gluon_parent</td><td style="vertical-align:top;">:</td><td><div>C:\\Users\\Ruben\\Documents\\Universidad\\4B\\PAE\\web2py_win\\web2py</div></td></tr><tr><td style="font-weight:bold;vertical-align:top;">is_jython</td><td style="vertical-align:top;">:</td><td><div>False</div></td></tr><tr><td style="font-weight:bold;vertical-align:top;">is_py2</td><td style="vertical-align:top;">:</td><td><div>True</div></td></tr><tr><td style="font-weight:bold;vertical-align:top;">is_pypy</td><td style="vertical-align:top;">:</td><td><div>False</div></td></tr><tr><td style="font-weight:bold;vertical-align:top;">is_source</td><td style="vertical-align:top;">:</td><td><div>False</div></td></tr><tr><td style="font-weight:bold;vertical-align:top;">local_hosts</td><td style="vertical-align:top;">:</td><td><div><table><tr><td><div>fe80::99a0:c65e:a082:e0cf%3</div></td></tr><tr><td><div>DESKTOP-B2VESB9.upc.edu</div></td></tr><tr><td><div>::ffff:127.0.0.1</div></td></tr><tr><td><div>::1</div></td></tr><tr><td><div>DESKTOP-B2VESB9</div></td></tr><tr><td><div>10.192.220.188</div></td></tr><tr><td><div>127.0.0.1</div></td></tr></table></div></td></tr><tr><td style="font-weight:bold;vertical-align:top;">web2py_version</td><td style="vertical-align:top;">:</td><td><div>2.18.5-stable+timestamp.2019.04.08.04.22.03</div></td></tr></table></div></td></tr><tr><td style="font-weight:bold;vertical-align:top;">is_https</td><td style="vertical-align:top;">:</td><td><div>False</div></td></tr><tr><td style="font-weight:bold;vertical-align:top;">is_local</td><td style="vertical-align:top;">:</td><td><div>True</div></td></tr><tr><td style="font-weight:bold;vertical-align:top;">is_restful</td><td style="vertical-align:top;">:</td><td><div>False</div></td></tr><tr><td style="font-weight:bold;vertical-align:top;">is_scheduler</td><td style="vertical-align:top;">:</td><td><div>False</div></td></tr><tr><td style="font-weight:bold;vertical-align:top;">is_shell</td><td style="vertical-align:top;">:</td><td><div>False</div></td></tr><tr><td style="font-weight:bold;vertical-align:top;">method</td><td style="vertical-align:top;">:</td><td><div>POST</div></td></tr><tr><td style="font-weight:bold;vertical-align:top;">now</td><td style="vertical-align:top;">:</td><td><div>datetime.datetime(2019, 4, 9, 18, 58, 28, 906000)</div></td></tr><tr><td style="font-weight:bold;vertical-align:top;">raw_args</td><td style="vertical-align:top;">:</td><td><div></div></td></tr><tr><td style="font-weight:bold;vertical-align:top;">raw_extension</td><td style="vertical-align:top;">:</td><td><div>None</div></td></tr><tr><td style="font-weight:bold;vertical-align:top;">url</td><td style="vertical-align:top;">:</td><td><div>/SearcherApp/default/form</div></td></tr><tr><td style="font-weight:bold;vertical-align:top;">utcnow</td><td style="vertical-align:top;">:</td><td><div>datetime.datetime(2019, 4, 9, 16, 58, 28, 907000)</div></td></tr><tr><td style="font-weight:bold;vertical-align:top;">wsgi</td><td style="vertical-align:top;">:</td><td><div>&lt;gluon.main.LazyWSGI object at 0x08E222B0&gt;</div></td></tr></table></div>'
tRp68
sS'frames'
p69
(lp70
(dp71
S'file'
p72
S'C:\\Users\\Ruben\\Documents\\Universidad\\4B\\PAE\\web2py_win\\web2py\\gluon\\restricted.py'
p73
sS'dump'
p74
(dp75
S'environment'
p76
S"{'A': <class 'gluon.html.A'>, 'ANY_OF': <class 'pydal.validators.ANY_OF'>, 'ASSIGNJS': <function ASSIGNJS>, 'AppConfig': <function AppConfig>, 'Auth': <class 'gluon.tools.Auth'>, 'B': <class 'gluon.html.B'>, 'BEAUTIFY': <class 'gluon.html.BEAUTIFY'>, 'BODY': <class 'gluon.html.BODY'>, 'BR': <class 'gluon.html.BR'>, 'BUTTON': <class 'gluon.html.BUTTON'>, ...}"
p77
sS'ccode'
p78
S'<code object <module> at 03C85A40, file "C:\\User...ions\\SearcherApp\\controllers/default.py", line 1>'
p79
ssS'lnum'
p80
I219
sS'lines'
p81
(dp82
I214
S'    if environment is None:'
p83
sI215
S'        environment = {}'
p84
sI216
S"    environment['__file__'] = layer"
p85
sI217
S"    environment['__name__'] = '__restricted__'"
p86
sI218
S'    try:'
p87
sI219
S'        exec(ccode, environment)'
p88
sI220
S'    except HTTP:'
p89
sI221
S'        raise'
p90
sI222
S'    except RestrictedError:'
p91
sI223
S'        # do not encapsulate (obfuscate) the original RestrictedError'
p92
ssS'call'
p93
S'(ccode=<code object <module> at 03C85A40, file "C:\\User...ions\\SearcherApp\\controllers/default.py", line 1>, environment={\'A\': <class \'gluon.html.A\'>, \'ANY_OF\': <class \'pydal.validators.ANY_OF\'>, \'ASSIGNJS\': <function ASSIGNJS>, \'AppConfig\': <function AppConfig>, \'Auth\': <class \'gluon.tools.Auth\'>, \'B\': <class \'gluon.html.B\'>, \'BEAUTIFY\': <class \'gluon.html.BEAUTIFY\'>, \'BODY\': <class \'gluon.html.BODY\'>, \'BR\': <class \'gluon.html.BR\'>, \'BUTTON\': <class \'gluon.html.BUTTON\'>, ...}, layer=r\'C:\\Users\\Ruben\\Documents\\Universidad\\4B\\PAE\\web2...y\\applications\\SearcherApp\\controllers/default.py\', scode=<code object <module> at 03C85A40, file "C:\\User...ions\\SearcherApp\\controllers/default.py", line 1>)'
p94
sS'func'
p95
S'restricted'
p96
sa(dp97
g72
S'C:\\Users\\Ruben\\Documents\\Universidad\\4B\\PAE\\web2py_win\\web2py\\applications\\SearcherApp\\controllers\\default.py'
p98
sg74
(dp99
sg80
I30
sg81
(dp100
I19
S'                else:'
p101
sI20
S'                    values.append(value)'
p102
sI21
S''
sI22
S'        form_rows.append(TR(filterName,SELECT(values,_name=str((tableName,filterName)))))'
p103
sI23
S'    form_rows.append( TR("",INPUT(_type="submit",_value="Search")))'
p104
sI24
S'    form = FORM(TABLE(*form_rows))'
p105
sI25
S''
sI26
S'    print(request.vars)'
p106
sI27
S''
sI28
S'    return dict(form=form,searchDict=form.vars)'
p107
ssg93
S'()'
p108
sg95
S'<module>'
p109
sa(dp110
g72
S'C:\\Users\\Ruben\\Documents\\Universidad\\4B\\PAE\\web2py_win\\web2py\\gluon\\globals.py'
p111
sg74
(dp112
S'self'
p113
S'undefined'
p114
sS'f'
S'<function form>'
p115
ssg80
I421
sg81
(dp116
I416
S"        self.flash = ''            # used by the default view layout"
p117
sI417
S'        self.meta = Storage()      # used by web2py_ajax.html'
p118
sI418
S'        self.menu = []             # used by the default view layout'
p119
sI419
S'        self.files = []            # used by web2py_ajax.html'
p120
sI420
S'        self._vars = None'
p121
sI421
S'        self._caller = lambda f: f()'
p122
sI422
S'        self._view_environment = None'
p123
sI423
S'        self._custom_commit = None'
p124
sI424
S'        self._custom_rollback = None'
p125
sI425
S"        self.generic_patterns = ['*']"
p126
ssg93
S'(f=<function form>)'
p127
sg95
S'<lambda>'
p128
sa(dp129
g72
S'C:\\Users\\Ruben\\Documents\\Universidad\\4B\\PAE\\web2py_win\\web2py\\applications\\SearcherApp\\controllers\\default.py'
p130
sg74
(dp131
S'form_rows'
p132
g114
ssg80
I7
sg81
(dp133
I2
S'#from SearchModule import *'
p134
sI3
S'import ast'
p135
sI4
S''
sI5
S''
sI6
S'def form():'
p136
sI7
S'    filterDict = obtainFilterDictMT()'
p137
sI8
S'    conversionDict = obtainConversionDict()'
p138
sI9
S'    #filterDict = ast.literal_eval(open(r"C:\\Users\\Ruben\\Documents\\Universidad\\4B\\PAE\\test\\filt.txt", "r").read())'
p139
sI10
S'    #conversionDict = ast.literal_eval(open(r"C:\\Users\\Ruben\\Documents\\Universidad\\4B\\PAE\\test\\conv.txt", "r").read())'
p140
sI11
S''
ssg93
S'()'
p141
sg95
S'form'
p142
sa(dp143
g72
S'C:\\Users\\Ruben\\Documents\\Universidad\\4B\\PAE\\web2py_win\\web2py\\applications\\SearcherApp\\modules\\QueryModule.py'
p144
sg74
(dp145
S'PKInfo'
p146
g114
sS'global _obtainPKInfo'
p147
S'<function _obtainPKInfo>'
p148
ssg80
I97
sg81
(dp149
I96
S'    # Obtain PKInfo()'
p150
sI97
S'    PKInfo = _obtainPKInfo()'
p151
sI98
S''
sI99
S'    # Create dictionary to store db info'
p152
sI100
S'    # Tuple of (Table,Column) as key and list of distinct values for the column as value'
p153
sI101
S'    filterDict = {}'
p154
sI92
S''
sI93
S'# This function returns a dictionary containing all the needed info to start the GUI from MultiTable DB'
p155
sI94
S'def obtainFilterDictMT():'
p156
sI95
S''
ssg93
S'()'
p157
sg95
S'obtainFilterDictMT'
p158
sa(dp159
g72
S'C:\\Users\\Ruben\\Documents\\Universidad\\4B\\PAE\\web2py_win\\web2py\\applications\\SearcherApp\\modules\\QueryModule.py'
p160
sg74
(dp161
S'sqlQuery'
p162
S'"SELECT table_name, column_name, column_key FROM ...able_schema = \'searcherTest2\' order by table_name"'
p163
sS'global dbName'
p164
S"'searcherTest2'"
p165
sS'global _queryDB'
p166
S'<function _queryDB>'
p167
ssg80
I46
sg81
(dp168
I41
S''
sI42
S'    # Obtain table_name, column_name, column_key of all columns in DB'
p169
sI43
S'    sqlQuery = "SELECT table_name, column_name, column_key FROM information_schema.columns WHERE table_schema = \'{0}\' order by table_name".format(dbName)'
p170
sI44
S''
sI45
S'    # Execute the sqlQuery and get answer'
p171
sI46
S'    return _queryDB(sqlQuery,dbName)'
p172
sI47
S''
sI48
S'######## PUBLIC FUNCTIONS ########'
p173
sI49
S''
sI50
S'# This function returns a dictionary containing all the needed info to start the GUI'
p174
ssg93
S'()'
p175
sg95
S'_obtainPKInfo'
p176
sa(dp177
g72
S'C:\\Users\\Ruben\\Documents\\Universidad\\4B\\PAE\\web2py_win\\web2py\\applications\\SearcherApp\\modules\\QueryModule.py'
p178
sg74
(dp179
S'charset'
p180
g114
sS'db'
p181
g114
sS'dbName'
p182
S"'searcherTest2'"
p183
sS'global charSet'
p184
S"'utf8mb4'"
p185
ssg80
I18
sg81
(dp186
I13
S''
sI14
S'# Auxiliary private function that encapsulates queries to the DB'
p187
sI15
S'def _queryDB(sqlQuery,dbName):'
p188
sI16
S'    # Create a connection object'
p189
sI17
S'    connectionObject = pymysql.connect(host=dbServerName, user=dbUser, password=dbPassword,'
p190
sI18
S'                                         db=dbName, charset=charSet)#,cursorclass=cursorType)'
p191
sI19
S'    try:'
p192
sI20
S'        # Create a cursor object'
p193
sI21
S'        cursorObject = connectionObject.cursor()'
p194
sI22
S''
ssg93
S'(sqlQuery="SELECT table_name, column_name, column_key FROM ...able_schema = \'searcherTest2\' order by table_name", dbName=\'searcherTest2\')'
p195
sg95
S'_queryDB'
p196
sa(dp197
g72
S'C:\\Users\\Ruben\\Documents\\Universidad\\4B\\PAE\\web2py_win\\web2py\\applications\\SearcherApp\\modules\\pymysql\\__init__.py'
p198
sg74
(dp199
S'Connection'
p200
S"<class 'applications.SearcherApp.modules.pymysql.connections.Connection'>"
p201
sS'args'
p202
S'()'
p203
sS'kwargs'
p204
S"{'charset': 'utf8mb4', 'db': 'searcherTest2', 'host': '127.0.0.1', 'password': 'paesa19', 'user': 'ubuntu'}"
p205
ssg80
I94
sg81
(dp206
I96
S'from . import connections as _orig_conn'
p207
sI97
S'if _orig_conn.Connection.__init__.__doc__ is not None:'
p208
sI98
S'    Connect.__doc__ = _orig_conn.Connection.__init__.__doc__'
p209
sI89
S'    """'
p210
sI90
S'    Connect to the database; see connections.Connection.__init__() for'
p211
sI91
S'    more information.'
p212
sI92
S'    """'
p213
sI93
S'    from .connections import Connection'
p214
sI94
S'    return Connection(*args, **kwargs)'
p215
sI95
S''
ssg93
S"(*args=(), **kwargs={'charset': 'utf8mb4', 'db': 'searcherTest2', 'host': '127.0.0.1', 'password': 'paesa19', 'user': 'ubuntu'})"
p216
sg95
S'Connect'
p217
sa(dp218
g72
S'C:\\Users\\Ruben\\Documents\\Universidad\\4B\\PAE\\web2py_win\\web2py\\applications\\SearcherApp\\modules\\pymysql\\connections.py'
p219
sg74
(dp220
S'self'
p221
S'<applications.SearcherApp.modules.pymysql.connections.Connection object>'
p222
sS'self.connect'
p223
S'<bound method Connection.connect of <application...p.modules.pymysql.connections.Connection object>>'
p224
ssg80
I325
sg81
(dp225
I320
S'            self._connect_attrs["program_name"] = program_name'
p226
sI321
S''
sI322
S'        if defer_connect:'
p227
sI323
S'            self._sock = None'
p228
sI324
S'        else:'
p229
sI325
S'            self.connect()'
p230
sI326
S''
sI327
S'    def _create_ssl_ctx(self, sslp):'
p231
sI328
S'        if isinstance(sslp, ssl.SSLContext):'
p232
sI329
S'            return sslp'
p233
ssg93
S"(self=<applications.SearcherApp.modules.pymysql.connections.Connection object>, host='127.0.0.1', user='ubuntu', password='paesa19', database='searcherTest2', port=0, unix_socket=None, charset='utf8mb4', sql_mode=None, read_default_file=None, conv={0: <class 'decimal.Decimal'>, 1: <type 'int'>, 2: <type 'int'>, 3: <type 'int'>, 4: <type 'float'>, 5: <type 'float'>, 7: <function convert_mysql_timestamp>, 8: <type 'int'>, 9: <type 'int'>, 10: <function convert_date>, ...}, use_unicode=None, client_flag=3842573, cursorclass=<class 'applications.SearcherApp.modules.pymysql.cursors.Cursor'>, init_command=None, connect_timeout=10, ssl=None, read_default_group=None, compress=None, named_pipe=None, autocommit=False, db='searcherTest2', passwd=None, local_infile=False, max_allowed_packet=16777216, defer_connect=False, auth_plugin_map=None, read_timeout=None, write_timeout=None, bind_address=None, binary_prefix=False, program_name=None, server_public_key=None)"
p234
sg95
g28
sa(dp235
g72
S'C:\\Users\\Ruben\\Documents\\Universidad\\4B\\PAE\\web2py_win\\web2py\\applications\\SearcherApp\\modules\\pymysql\\connections.py'
p236
sg74
(dp237
S'exc'
p238
S'OperationalError(2003, "Can\'t connect to MySQL s...stino deneg\\xf3 expresamente dicha conexi\\xf3n)")'
p239
ssg80
I630
sg81
(dp240
I625
S'                            self.host, e))'
p241
sI626
S'                # Keep original exception and traceback to investigate error.'
p242
sI627
S'                exc.original_exception = e'
p243
sI628
S'                exc.traceback = traceback.format_exc()'
p244
sI629
S'                if DEBUG: print(exc.traceback)'
p245
sI630
S'                raise exc'
p246
sI631
S''
sI632
S"            # If e is neither DatabaseError or IOError, It's a bug."
p247
sI633
S'            # But raising AssertionError hides original error.'
p248
sI634
S'            # So just reraise it.'
p249
ssg93
S'(self=<applications.SearcherApp.modules.pymysql.connections.Connection object>, sock=None)'
p250
sg95
S'connect'
p251
sasS'pyver'
p252
S'Python 2.7.9: C:\\Users\\Ruben\\Documents\\Universidad\\4B\\PAE\\web2py_win\\web2py\\web2py.exe (prefix: )'
p253
sS'session'
p254
g67
(S's\x1a\x00\x00\x00<div><table></table></div>'
tRp255
sS'etype'
p256
S"<class 'applications.SearcherApp.modules.pymysql.err.OperationalError'>"
p257
sS'date'
p258
S'Tue Apr 09 18:58:30 2019'
p259
sS'response'
p260
g67
(S's\x81=\x00\x00<div><table><tr><td style="font-weight:bold;vertical-align:top;">body</td><td style="vertical-align:top;">:</td><td><div>&lt;cStringIO.StringO object at 0x08E225A0&gt;</div></td></tr><tr><td style="font-weight:bold;vertical-align:top;">cookies</td><td style="vertical-align:top;">:</td><td><div><table><tr><td style="font-weight:bold;vertical-align:top;">session_id_searcherapp</td><td style="vertical-align:top;">:</td><td><div>127.0.0.1-61378040-a191-4756-bc53-c9f058ecf192<table><tr><td style="font-weight:bold;vertical-align:top;">comment</td><td style="vertical-align:top;">:</td><td><div></div></td></tr><tr><td style="font-weight:bold;vertical-align:top;">domain</td><td style="vertical-align:top;">:</td><td><div></div></td></tr><tr><td style="font-weight:bold;vertical-align:top;">expires</td><td style="vertical-align:top;">:</td><td><div></div></td></tr><tr><td style="font-weight:bold;vertical-align:top;">httponly</td><td style="vertical-align:top;">:</td><td><div></div></td></tr><tr><td style="font-weight:bold;vertical-align:top;">max-age</td><td style="vertical-align:top;">:</td><td><div></div></td></tr><tr><td style="font-weight:bold;vertical-align:top;">path</td><td style="vertical-align:top;">:</td><td><div>/</div></td></tr><tr><td style="font-weight:bold;vertical-align:top;">samesite</td><td style="vertical-align:top;">:</td><td><div></div></td></tr><tr><td style="font-weight:bold;vertical-align:top;">secure</td><td style="vertical-align:top;">:</td><td><div></div></td></tr><tr><td style="font-weight:bold;vertical-align:top;">version</td><td style="vertical-align:top;">:</td><td><div></div></td></tr></table></div></td></tr></table></div></td></tr><tr><td style="font-weight:bold;vertical-align:top;">delimiters</td><td style="vertical-align:top;">:</td><td><div><table><tr><td><div>{{</div></td></tr><tr><td><div>}}</div></td></tr></table></div></td></tr><tr><td style="font-weight:bold;vertical-align:top;">files</td><td style="vertical-align:top;">:</td><td><div><table></table></div></td></tr><tr><td style="font-weight:bold;vertical-align:top;">flash</td><td style="vertical-align:top;">:</td><td><div></div></td></tr><tr><td style="font-weight:bold;vertical-align:top;">form_label_separator</td><td style="vertical-align:top;">:</td><td><div></div></td></tr><tr><td style="font-weight:bold;vertical-align:top;">formstyle</td><td style="vertical-align:top;">:</td><td><div>bootstrap4_inline</div></td></tr><tr><td style="font-weight:bold;vertical-align:top;">generic_patterns</td><td style="vertical-align:top;">:</td><td><div><table><tr><td><div>*</div></td></tr></table></div></td></tr><tr><td style="font-weight:bold;vertical-align:top;">google_analytics_id</td><td style="vertical-align:top;">:</td><td><div>None</div></td></tr><tr><td style="font-weight:bold;vertical-align:top;">headers</td><td style="vertical-align:top;">:</td><td><div><table><tr><td style="font-weight:bold;vertical-align:top;">X-Powered-By</td><td style="vertical-align:top;">:</td><td><div>web2py</div></td></tr></table></div></td></tr><tr><td style="font-weight:bold;vertical-align:top;">menu</td><td style="vertical-align:top;">:</td><td><div><table><tr><td><div><table><tr><td><div>Inici</div></td></tr><tr><td><div>False</div></td></tr><tr><td><div>/SearcherApp/default/index</div></td></tr><tr><td><div><table></table></div></td></tr></table></div></td></tr><tr><td><div><table><tr><td><div>Els Meus Llocs</div></td></tr><tr><td><div>False</div></td></tr><tr><td><div>/admin/default/site</div></td></tr></table></div></td></tr><tr><td><div><table><tr><td><div>Aquesta Aplicaci\xc3\xb3</div></td></tr><tr><td><div>False</div></td></tr><tr><td><div>#</div></td></tr><tr><td><div><table><tr><td><div><table><tr><td><div>Design</div></td></tr><tr><td><div>False</div></td></tr><tr><td><div>/admin/default/design/SearcherApp</div></td></tr></table></div></td></tr><tr><td><div><table><tr><td><div>Controlador</div></td></tr><tr><td><div>False</div></td></tr><tr><td><div>/admin/default/edit/SearcherApp/controllers/default.py</div></td></tr></table></div></td></tr><tr><td><div><table><tr><td><div>Vista</div></td></tr><tr><td><div>False</div></td></tr><tr><td><div>/admin/default/edit/SearcherApp/views/default/form.html</div></td></tr></table></div></td></tr><tr><td><div><table><tr><td><div>Model BDD</div></td></tr><tr><td><div>False</div></td></tr><tr><td><div>/admin/default/edit/SearcherApp/models/db.py</div></td></tr></table></div></td></tr><tr><td><div><table><tr><td><div>Model "menu"</div></td></tr><tr><td><div>False</div></td></tr><tr><td><div>/admin/default/edit/SearcherApp/models/menu.py</div></td></tr></table></div></td></tr><tr><td><div><table><tr><td><div>Config.ini</div></td></tr><tr><td><div>False</div></td></tr><tr><td><div>/admin/default/edit/SearcherApp/private/appconfig.ini</div></td></tr></table></div></td></tr><tr><td><div><table><tr><td><div>Diseny de p\xc3\xa0gina</div></td></tr><tr><td><div>False</div></td></tr><tr><td><div>/admin/default/edit/SearcherApp/views/layout.html</div></td></tr></table></div></td></tr><tr><td><div><table><tr><td><div>Fulla d\'estil</div></td></tr><tr><td><div>False</div></td></tr><tr><td><div>/admin/default/edit/SearcherApp/static/css/web2py-bootstrap3.css</div></td></tr></table></div></td></tr><tr><td><div><table><tr><td><div>Base de dades</div></td></tr><tr><td><div>False</div></td></tr><tr><td><div>/SearcherApp/appadmin/index</div></td></tr></table></div></td></tr><tr><td><div><table><tr><td><div>Errors</div></td></tr><tr><td><div>False</div></td></tr><tr><td><div>/admin/default/errors/SearcherApp</div></td></tr></table></div></td></tr><tr><td><div><table><tr><td><div>Sobre</div></td></tr><tr><td><div>False</div></td></tr><tr><td><div>/admin/default/about/SearcherApp</div></td></tr></table></div></td></tr></table></div></td></tr></table></div></td></tr><tr><td><div><table><tr><td><div>web2py.com</div></td></tr><tr><td><div>False</div></td></tr><tr><td><div>#</div></td></tr><tr><td><div><table><tr><td><div><table><tr><td><div>Desc\xc3\xa0rregues</div></td></tr><tr><td><div>False</div></td></tr><tr><td><div>http://www.web2py.com/examples/default/download</div></td></tr></table></div></td></tr><tr><td><div><table><tr><td><div>Suport</div></td></tr><tr><td><div>False</div></td></tr><tr><td><div>http://www.web2py.com/examples/default/support</div></td></tr></table></div></td></tr><tr><td><div><table><tr><td><div>Demostraci\xc3\xb3</div></td></tr><tr><td><div>False</div></td></tr><tr><td><div>http://web2py.com/demo_admin</div></td></tr></table></div></td></tr><tr><td><div><table><tr><td><div>Exemple R\xc3\xa0pids</div></td></tr><tr><td><div>False</div></td></tr><tr><td><div>http://web2py.com/examples/default/examples</div></td></tr></table></div></td></tr><tr><td><div><table><tr><td><div>FAQ</div></td></tr><tr><td><div>False</div></td></tr><tr><td><div>http://web2py.com/AlterEgo</div></td></tr></table></div></td></tr><tr><td><div><table><tr><td><div>Videos</div></td></tr><tr><td><div>False</div></td></tr><tr><td><div>http://www.web2py.com/examples/default/videos/</div></td></tr></table></div></td></tr><tr><td><div><table><tr><td><div>Aplicacions Lliures</div></td></tr><tr><td><div>False</div></td></tr><tr><td><div>http://web2py.com/appliances</div></td></tr></table></div></td></tr><tr><td><div><table><tr><td><div>Plugins</div></td></tr><tr><td><div>False</div></td></tr><tr><td><div>http://web2py.com/plugins</div></td></tr></table></div></td></tr><tr><td><div><table><tr><td><div>Receptes</div></td></tr><tr><td><div>False</div></td></tr><tr><td><div>http://web2pyslices.com/</div></td></tr></table></div></td></tr></table></div></td></tr></table></div></td></tr><tr><td><div><table><tr><td><div>Documentaci\xc3\xb3</div></td></tr><tr><td><div>False</div></td></tr><tr><td><div>#</div></td></tr><tr><td><div><table><tr><td><div><table><tr><td><div>Online book</div></td></tr><tr><td><div>False</div></td></tr><tr><td><div>http://www.web2py.com/book</div></td></tr></table></div></td></tr><tr><td><div><table><tr><td><div>Prefaci</div></td></tr><tr><td><div>False</div></td></tr><tr><td><div>http://www.web2py.com/book/default/chapter/00</div></td></tr></table></div></td></tr><tr><td><div><table><tr><td><div>Introducci\xc3\xb3</div></td></tr><tr><td><div>False</div></td></tr><tr><td><div>http://www.web2py.com/book/default/chapter/01</div></td></tr></table></div></td></tr><tr><td><div><table><tr><td><div>Python</div></td></tr><tr><td><div>False</div></td></tr><tr><td><div>http://www.web2py.com/book/default/chapter/02</div></td></tr></table></div></td></tr><tr><td><div><table><tr><td><div>Resum</div></td></tr><tr><td><div>False</div></td></tr><tr><td><div>http://www.web2py.com/book/default/chapter/03</div></td></tr></table></div></td></tr><tr><td><div><table><tr><td><div>El Nucli</div></td></tr><tr><td><div>False</div></td></tr><tr><td><div>http://www.web2py.com/book/default/chapter/04</div></td></tr></table></div></td></tr><tr><td><div><table><tr><td><div>Les Vistes</div></td></tr><tr><td><div>False</div></td></tr><tr><td><div>http://www.web2py.com/book/default/chapter/05</div></td></tr></table></div></td></tr><tr><td><div><table><tr><td><div>Base de dades</div></td></tr><tr><td><div>False</div></td></tr><tr><td><div>http://www.web2py.com/book/default/chapter/06</div></td></tr></table></div></td></tr><tr><td><div><table><tr><td><div>Formularis i validadors</div></td></tr><tr><td><div>False</div></td></tr><tr><td><div>http://www.web2py.com/book/default/chapter/07</div></td></tr></table></div></td></tr><tr><td><div><table><tr><td><div>Correu electr\xc3\xb2nic i SMS</div></td></tr><tr><td><div>False</div></td></tr><tr><td><div>http://www.web2py.com/book/default/chapter/08</div></td></tr></table></div></td></tr><tr><td><div><table><tr><td><div>Control d\'Acc\xc3\xa9s</div></td></tr><tr><td><div>False</div></td></tr><tr><td><div>http://www.web2py.com/book/default/chapter/09</div></td></tr></table></div></td></tr><tr><td><div><table><tr><td><div>Serveis</div></td></tr><tr><td><div>False</div></td></tr><tr><td><div>http://www.web2py.com/book/default/chapter/10</div></td></tr></table></div></td></tr><tr><td><div><table><tr><td><div>Receptes AJAX</div></td></tr><tr><td><div>False</div></td></tr><tr><td><div>http://www.web2py.com/book/default/chapter/11</div></td></tr></table></div></td></tr><tr><td><div><table><tr><td><div>Components i Plugins</div></td></tr><tr><td><div>False</div></td></tr><tr><td><div>http://www.web2py.com/book/default/chapter/12</div></td></tr></table></div></td></tr><tr><td><div><table><tr><td><div>Receptes de desplegament</div></td></tr><tr><td><div>False</div></td></tr><tr><td><div>http://www.web2py.com/book/default/chapter/13</div></td></tr></table></div></td></tr><tr><td><div><table><tr><td><div>Altres Receptes</div></td></tr><tr><td><div>False</div></td></tr><tr><td><div>http://www.web2py.com/book/default/chapter/14</div></td></tr></table></div></td></tr><tr><td><div><table><tr><td><div>Helping web2py</div></td></tr><tr><td><div>False</div></td></tr><tr><td><div>http://www.web2py.com/book/default/chapter/15</div></td></tr></table></div></td></tr><tr><td><div><table><tr><td><div>Buy web2py\'s book</div></td></tr><tr><td><div>False</div></td></tr><tr><td><div>http://stores.lulu.com/web2py</div></td></tr></table></div></td></tr></table></div></td></tr></table></div></td></tr><tr><td><div><table><tr><td><div>Comunitat</div></td></tr><tr><td><div>False</div></td></tr><tr><td><div>None</div></td></tr><tr><td><div><table><tr><td><div><table><tr><td><div>Grups</div></td></tr><tr><td><div>False</div></td></tr><tr><td><div>http://www.web2py.com/examples/default/usergroups</div></td></tr></table></div></td></tr><tr><td><div><table><tr><td><div>Twitter</div></td></tr><tr><td><div>False</div></td></tr><tr><td><div>http://twitter.com/web2py</div></td></tr></table></div></td></tr><tr><td><div><table><tr><td><div>Xat en viu</div></td></tr><tr><td><div>False</div></td></tr><tr><td><div>http://webchat.freenode.net/?channels=web2py</div></td></tr></table></div></td></tr></table></div></td></tr></table></div></td></tr></table></div></td></tr><tr><td style="font-weight:bold;vertical-align:top;">meta</td><td style="vertical-align:top;">:</td><td><div><table><tr><td style="font-weight:bold;vertical-align:top;">author</td><td style="vertical-align:top;">:</td><td><div>Your Name &lt;you@example.com&gt;</div></td></tr><tr><td style="font-weight:bold;vertical-align:top;">description</td><td style="vertical-align:top;">:</td><td><div>a cool new app</div></td></tr><tr><td style="font-weight:bold;vertical-align:top;">generator</td><td style="vertical-align:top;">:</td><td><div>Web2py Web Framework</div></td></tr><tr><td style="font-weight:bold;vertical-align:top;">keywords</td><td style="vertical-align:top;">:</td><td><div><table><tr><td><div>web2py</div></td></tr><tr><td><div>python</div></td></tr><tr><td><div>framework</div></td></tr></table></div></td></tr></table></div></td></tr><tr><td style="font-weight:bold;vertical-align:top;">models_to_run</td><td style="vertical-align:top;">:</td><td><div><table><tr><td><div>^\\w+\\.py$</div></td></tr><tr><td><div>^default/\\w+\\.py$</div></td></tr><tr><td><div>^default/form/\\w+\\.py$</div></td></tr></table></div></td></tr><tr><td style="font-weight:bold;vertical-align:top;">postprocessing</td><td style="vertical-align:top;">:</td><td><div><table></table></div></td></tr><tr><td style="font-weight:bold;vertical-align:top;">session_client</td><td style="vertical-align:top;">:</td><td><div>127.0.0.1</div></td></tr><tr><td style="font-weight:bold;vertical-align:top;">session_cookie_compression_level</td><td style="vertical-align:top;">:</td><td><div>None</div></td></tr><tr><td style="font-weight:bold;vertical-align:top;">session_cookie_expires</td><td style="vertical-align:top;">:</td><td><div>None</div></td></tr><tr><td style="font-weight:bold;vertical-align:top;">session_data_name</td><td style="vertical-align:top;">:</td><td><div>session_data_searcherapp</div></td></tr><tr><td style="font-weight:bold;vertical-align:top;">session_file</td><td style="vertical-align:top;">:</td><td><div>None</div></td></tr><tr><td style="font-weight:bold;vertical-align:top;">session_filename</td><td style="vertical-align:top;">:</td><td><div>C:\\Users\\Ruben\\Documents\\Universidad\\4B\\PAE\\web2py_win\\web2py\\applications\\SearcherApp\\sessions\\127.0.0.1-61378040-a191-4756-bc53-c9f058ecf192</div></td></tr><tr><td style="font-weight:bold;vertical-align:top;">session_hash</td><td style="vertical-align:top;">:</td><td><div>c0762cbf4baf7f9af97c051e7fcb8083</div></td></tr><tr><td style="font-weight:bold;vertical-align:top;">session_id</td><td style="vertical-align:top;">:</td><td><div>127.0.0.1-61378040-a191-4756-bc53-c9f058ecf192</div></td></tr><tr><td style="font-weight:bold;vertical-align:top;">session_id_name</td><td style="vertical-align:top;">:</td><td><div>session_id_searcherapp</div></td></tr><tr><td style="font-weight:bold;vertical-align:top;">session_masterapp</td><td style="vertical-align:top;">:</td><td><div>SearcherApp</div></td></tr><tr><td style="font-weight:bold;vertical-align:top;">session_new</td><td style="vertical-align:top;">:</td><td><div>True</div></td></tr><tr><td style="font-weight:bold;vertical-align:top;">session_storage_type</td><td style="vertical-align:top;">:</td><td><div>file</div></td></tr><tr><td style="font-weight:bold;vertical-align:top;">show_toolbar</td><td style="vertical-align:top;">:</td><td><div>False</div></td></tr><tr><td style="font-weight:bold;vertical-align:top;">status</td><td style="vertical-align:top;">:</td><td><div>200</div></td></tr><tr><td style="font-weight:bold;vertical-align:top;">view</td><td style="vertical-align:top;">:</td><td><div>default/form.html</div></td></tr></table></div>'
tRp261
sS'locals'
p262
(dp263
S'e'
S"error(10061, 'No se puede establecer una conexi\\...estino deneg\\xf3 expresamente dicha conexi\\xf3n')"
p264
sS'self'
p265
S'<applications.SearcherApp.modules.pymysql.connections.Connection object>'
p266
sS'sock'
p267
S'None'
p268
sS'exc'
p269
S'OperationalError(2003, "Can\'t connect to MySQL s...stino deneg\\xf3 expresamente dicha conexi\\xf3n)")'
p270
sS'kwargs'
p271
S'{}'
p272
sssg56
S'Traceback (most recent call last):\n  File "C:\\Users\\Ruben\\Documents\\Universidad\\4B\\PAE\\web2py_win\\web2py\\gluon\\restricted.py", line 219, in restricted\n    exec(ccode, environment)\n  File "C:\\Users\\Ruben\\Documents\\Universidad\\4B\\PAE\\web2py_win\\web2py\\applications\\SearcherApp\\controllers/default.py", line 30, in <module>\n  File "C:\\Users\\Ruben\\Documents\\Universidad\\4B\\PAE\\web2py_win\\web2py\\gluon\\globals.py", line 421, in <lambda>\n    self._caller = lambda f: f()\n  File "C:\\Users\\Ruben\\Documents\\Universidad\\4B\\PAE\\web2py_win\\web2py\\applications\\SearcherApp\\controllers/default.py", line 7, in form\n    filterDict = obtainFilterDictMT()\n  File "applications\\SearcherApp\\modules\\QueryModule.py", line 97, in obtainFilterDictMT\n    PKInfo = _obtainPKInfo()\n  File "applications\\SearcherApp\\modules\\QueryModule.py", line 46, in _obtainPKInfo\n    return _queryDB(sqlQuery,dbName)\n  File "applications\\SearcherApp\\modules\\QueryModule.py", line 18, in _queryDB\n    db=dbName, charset=charSet)#,cursorclass=cursorType)\n  File "applications\\SearcherApp\\modules\\pymysql\\__init__.py", line 94, in Connect\n    return Connection(*args, **kwargs)\n  File "applications\\SearcherApp\\modules\\pymysql\\connections.py", line 325, in __init__\n    self.connect()\n  File "applications\\SearcherApp\\modules\\pymysql\\connections.py", line 630, in connect\n    raise exc\nOperationalError: (2003, "Can\'t connect to MySQL server on \'127.0.0.1\' ([Errno 10061] No se puede establecer una conexi\\xf3n ya que el equipo de destino deneg\\xf3 expresamente dicha conexi\\xf3n)")\n'
p273
s.